; Function Attrs: mustprogress nounwind willreturn uwtable
define internal void @Ppmd7_Free(ptr noundef captures(none) initializes((52, 56)) %0) #1 {
  %2 = getelementptr inbounds nuw i8, ptr %0, i64 64
  %3 = load ptr, ptr %2, align 8, !tbaa !4
  tail call void @free(ptr noundef %3) #13
  %4 = getelementptr inbounds nuw i8, ptr %0, i64 52
  store i32 0, ptr %4, align 4, !tbaa !20
  store ptr null, ptr %2, align 8, !tbaa !4
  ret void
}